target datalayout = "e-m:e-p270:32:32-p271:32:32-p272:64:64-i64:64-i128:128-f80:128-n8:16:32:64-S128"
target triple = "x86_64-pc-linux-gnu"

%"struct.icu_77::Norm" = type { ptr, ptr, i32, i32, i32, ptr, i8, i8, i8, i8, i8, i8, i32, i32, ptr }
%"class.icu_77::Norms" = type { %"class.icu_77::UnicodeSet", %"class.icu_77::UnicodeSet", ptr, ptr, ptr }
%"class.icu_77::UnicodeSet" = type <{ %"class.icu_77::UnicodeFilter", ptr, i32, i32, i8, [7 x i8], ptr, ptr, i32, [4 x i8], ptr, i32, [4 x i8], ptr, ptr, [25 x i32], [4 x i8] }>
%"class.icu_77::UnicodeFilter" = type { %"class.icu_77::UnicodeFunctor", %"class.icu_77::UnicodeMatcher" }
%"class.icu_77::UnicodeFunctor" = type { %"class.icu_77::UObject" }
%"class.icu_77::UObject" = type { ptr }
%"class.icu_77::UnicodeMatcher" = type { ptr }

; Function Attrs: mustprogress uwtable
define dso_local void @_ZN6icu_775Norms10enumRangesERNS0_10EnumeratorE(ptr noundef nonnull align 8 dereferenceable(424) %0, ptr noundef nonnull align 8 dereferenceable(16) %1) #0 align 2 {
  %3 = alloca ptr, align 8
  %4 = alloca ptr, align 8
  %5 = alloca i32, align 4
  %6 = alloca i32, align 4
  %7 = alloca i32, align 4
  store ptr %0, ptr %3, align 8, !tbaa !38
  store ptr %1, ptr %4, align 8, !tbaa !79
  %8 = load ptr, ptr %3, align 8
  call void @llvm.lifetime.start.p0(i64 4, ptr %5) #11
  store i32 0, ptr %5, align 4, !tbaa !9
  call void @llvm.lifetime.start.p0(i64 4, ptr %6) #11
  call void @llvm.lifetime.start.p0(i64 4, ptr %7) #11
  br label %9

9:                                                ; preds = %30, %2
  %10 = getelementptr inbounds nuw %"class.icu_77::Norms", ptr %8, i32 0, i32 2
  %11 = load ptr, ptr %10, align 8, !tbaa !41
  %12 = load i32, ptr %5, align 4, !tbaa !9
  %13 = call i32 @umutablecptrie_getRange_77(ptr noundef %11, i32 noundef %12, i32 noundef 0, i32 noundef 0, ptr noundef null, ptr noundef null, ptr noundef %7)
  store i32 %13, ptr %6, align 4, !tbaa !9
  %14 = icmp sge i32 %13, 0
  br i1 %14, label %15, label %33

15:                                               ; preds = %9
  %16 = load i32, ptr %7, align 4, !tbaa !9
  %17 = icmp ugt i32 %16, 0
  br i1 %17, label %18, label %30

18:                                               ; preds = %15
  %19 = load ptr, ptr %4, align 8, !tbaa !79
  %20 = load i32, ptr %5, align 4, !tbaa !9
  %21 = load i32, ptr %6, align 4, !tbaa !9
  %22 = getelementptr inbounds nuw %"class.icu_77::Norms", ptr %8, i32 0, i32 4
  %23 = load ptr, ptr %22, align 8, !tbaa !55
  %24 = load i32, ptr %7, align 4, !tbaa !9
  %25 = zext i32 %24 to i64
  %26 = getelementptr inbounds nuw %"struct.icu_77::Norm", ptr %23, i64 %25
  %27 = load ptr, ptr %19, align 8, !tbaa !58
  %28 = getelementptr inbounds ptr, ptr %27, i64 2
  %29 = load ptr, ptr %28, align 8
  call void %29(ptr noundef nonnull align 8 dereferenceable(16) %19, i32 noundef %20, i32 noundef %21, ptr noundef nonnull align 8 dereferenceable(64) %26)
  br label %30

30:                                               ; preds = %18, %15
  %31 = load i32, ptr %6, align 4, !tbaa !9
  %32 = add nsw i32 %31, 1
  store i32 %32, ptr %5, align 4, !tbaa !9
  br label %9, !llvm.loop !81

33:                                               ; preds = %9
  call void @llvm.lifetime.end.p0(i64 4, ptr %7) #11
  call void @llvm.lifetime.end.p0(i64 4, ptr %6) #11
  call void @llvm.lifetime.end.p0(i64 4, ptr %5) #11
  ret void
}