; Function Attrs: mustprogress uwtable
define dso_local void @_ZN6icu_775Norms10enumRangesERNS0_10EnumeratorE(ptr noundef nonnull readonly align 8 captures(none) dereferenceable(424) %0, ptr noundef nonnull align 8 dereferenceable(16) %1) local_unnamed_addr #2 align 2 {
  %3 = alloca i32, align 4
  call void @llvm.lifetime.start.p0(i64 4, ptr nonnull %3) #18
  %4 = getelementptr inbounds nuw i8, ptr %0, i64 400
  %5 = load ptr, ptr %4, align 8, !tbaa !34
  %6 = call i32 @umutablecptrie_getRange_77(ptr noundef %5, i32 noundef 0, i32 noundef 0, i32 noundef 0, ptr noundef null, ptr noundef null, ptr noundef nonnull %3)
  %7 = icmp sgt i32 %6, -1
  br i1 %7, label %.lr.ph, label %._crit_edge

.lr.ph:                                           ; preds = %2
  %8 = getelementptr inbounds nuw i8, ptr %0, i64 416
  br label %9

9:                                                ; preds = %.lr.ph, %19
  %10 = phi i32 [ %6, %.lr.ph ], [ %22, %19 ]
  %.07 = phi i32 [ 0, %.lr.ph ], [ %20, %19 ]
  %11 = load i32, ptr %3, align 4, !tbaa !9
  %.not = icmp eq i32 %11, 0
  br i1 %.not, label %19, label %12

12:                                               ; preds = %9
  %13 = load ptr, ptr %8, align 8, !tbaa !48
  %14 = zext i32 %11 to i64
  %15 = getelementptr inbounds nuw %"struct.icu_77::Norm", ptr %13, i64 %14
  %16 = load ptr, ptr %1, align 8, !tbaa !51
  %17 = getelementptr inbounds nuw i8, ptr %16, i64 16
  %18 = load ptr, ptr %17, align 8
  call void %18(ptr noundef nonnull align 8 dereferenceable(16) %1, i32 noundef %.07, i32 noundef %10, ptr noundef nonnull align 8 dereferenceable(64) %15)
  br label %19

19:                                               ; preds = %12, %9
  %20 = add nuw nsw i32 %10, 1
  %21 = load ptr, ptr %4, align 8, !tbaa !34
  %22 = call i32 @umutablecptrie_getRange_77(ptr noundef %21, i32 noundef %20, i32 noundef 0, i32 noundef 0, ptr noundef null, ptr noundef null, ptr noundef nonnull %3)
  %23 = icmp sgt i32 %22, -1
  br i1 %23, label %9, label %._crit_edge, !llvm.loop !65

._crit_edge:                                      ; preds = %19, %2
  call void @llvm.lifetime.end.p0(i64 4, ptr nonnull %3) #18
  ret void
}